; Function Attrs: mustprogress nounwind uwtable
define hidden noundef ptr @_ZNK11ModuleEntry6moduleEv(ptr nocapture noundef nonnull readonly align 8 dereferenceable(80) %0) local_unnamed_addr #0 align 2 {
  %2 = load ptr, ptr %0, align 8
  %3 = icmp eq ptr %2, null
  br i1 %3, label %_ZNK9OopHandle7resolveEv.exit, label %4

4:                                                ; preds = %1
  %5 = load ptr, ptr @_ZN14AccessInternal15RuntimeDispatchILm548932EP7oopDescLNS_11BarrierTypeE2EE10_load_funcE, align 8
  %6 = tail call noundef ptr %5(ptr noundef nonnull %2) #16
  br label %_ZNK9OopHandle7resolveEv.exit

_ZNK9OopHandle7resolveEv.exit:                    ; preds = %1, %4
  %7 = phi ptr [ %6, %4 ], [ null, %1 ]
  ret ptr %7
}